Certificate:
    Data:
        Version: 3 (0x2)
        Serial Number: 1 (0x1)
    Signature Algorithm: sha256WithRSAEncryption
        Issuer: CN=picotls test ca
        Validity
            Not Before: Feb 23 05:31:04 2018 GMT
            Not After : Feb 21 05:31:04 2028 GMT
        Subject: CN=test.example.com
        Subject Public Key Info:
            Public Key Algorithm: id-ecPublicKey
                Public-Key: (256 bit)
                pub:
                    04:da:c8:a5:40:54:ba:33:da:18:a9:41:7f:49:53:
                    df:60:e6:a6:3d:b6:8e:53:3a:9f:dd:19:14:5e:ab:
                    03:cf:bc:fb:36:98:16:24:8f:07:29:6d:15:d8:4f:
                    30:e8:09:64:fb:14:fc:86:7c:d4:06:c2:fd:9d:e8:
                    99:3f:48:8c:2b
                ASN1 OID: prime256v1
                NIST CURVE: P-256
        X509v3 extensions:
            X509v3 Basic Constraints: 
                CA:FALSE
            Netscape Comment: 
                OpenSSL Generated Certificate
            X509v3 Subject Key Identifier: 
                EE:30:86:16:A1:D2:69:AD:64:E4:D7:77:6B:B2:FD:5C:4F:01:A2:B5
            X509v3 Authority Key Identifier: 
                keyid:BF:79:CA:97:B2:60:78:20:96:AA:46:57:9C:DF:A7:B2:23:F5:25:63

    Signature Algorithm: sha256WithRSAEncryption
         8f:ac:9c:01:6d:81:aa:8c:ae:5d:b5:16:74:ea:e8:eb:26:5b:
         b1:66:d5:6b:d4:4d:79:0d:6d:87:a9:b6:bf:74:2d:c1:b2:2e:
         52:b6:4b:ca:0d:01:45:38:58:1a:d2:6a:6d:20:98:5a:51:b0:
         6f:2c:3f:0f:12:88:ed:7c:09:a5:74:00:21:3d:4b:d2:2d:54:
         aa:53:8b:64:f9:1e:ea:a5:8a:e7:61:5e:56:92:52:36:3e:a0:
         68:59:9c:7d:b3:e8:5c:4b:77:6e:de:28:ed:18:91:a9:9c:39:
         d2:96:cc:98:05:8c:74:dc:1e:12:5b:38:bd:56:cb:a3:e8:e1:
         2a:5a:2b:d2:32:45:c1:10:85:20:6c:6b:34:ea:66:91:0e:2e:
         b8:64:87:9f:07:bc:23:4f:23:ad:be:89:df:0a:98:47:e9:63:
         02:d3:41:f4:2d:a4:ce:dd:e3:d8:41:08:fe:df:47:c0:e7:63:
         8e:1f:f0:4b:c5:ae:ab:c0:ba:38:3e:e3:90:9c:08:bd:75:1c:
         b9:b8:54:43:1d:99:42:e0:a2:b7:75:bb:14:03:79:9a:f6:07:
         d8:a5:ab:2b:3a:70:8b:77:85:70:8a:98:38:9b:35:09:f6:62:
         6b:29:4a:a7:a7:f9:3b:de:d8:c8:90:57:f2:76:2a:23:0b:01:
         68:c6:9a:f2
-----BEGIN CERTIFICATE-----
MIICYDCCAUigAwIBAgIBATANBgkqhkiG9w0BAQsFADAaMRgwFgYDVQQDEw9waWNv
dGxzIHRlc3QgY2EwHhcNMTgwMjIzMDUzMTA0WhcNMjgwMjIxMDUzMTA0WjAbMRkw
FwYDVQQDExB0ZXN0LmV4YW1wbGUuY29tMFkwEwYHKoZIzj0CAQYIKoZIzj0DAQcD
QgAE2silQFS6M9oYqUF/SVPfYOamPbaOUzqf3RkUXqsDz7z7NpgWJI8HKW0V2E8w
6Alk+xT8hnzUBsL9neiZP0iMK6N7MHkwCQYDVR0TBAIwADAsBglghkgBhvhCAQ0E
HxYdT3BlblNTTCBHZW5lcmF0ZWQgQ2VydGlmaWNhdGUwHQYDVR0OBBYEFO4whhah
0mmtZOTXd2uy/VxPAaK1MB8GA1UdIwQYMBaAFL95ypeyYHgglqpGV5zfp7Ij9SVj
MA0GCSqGSIb3DQEBCwUAA4IBAQCPrJwBbYGqjK5dtRZ06ujrJluxZtVr1E15DW2H
qba/dC3Bsi5StkvKDQFFOFga0mptIJhaUbBvLD8PEojtfAmldAAhPUvSLVSqU4tk
+R7qpYrnYV5WklI2PqBoWZx9s+hcS3du3ijtGJGpnDnSlsyYBYx03B4SWzi9Vsuj
6OEqWivSMkXBEIUgbGs06maRDi64ZIefB7wjTyOtvonfCphH6WMC00H0LaTO3ePY
QQj+30fA52OOH/BLxa6rwLo4PuOQnAi9dRy5uFRDHZlC4KK3dbsUA3ma9gfYpasr
OnCLd4Vwipg4mzUJ9mJrKUqnp/k73tjIkFfydiojCwFoxpry
-----END CERTIFICATE-----
